; Function Attrs: nofree norecurse nosync nounwind uwtable
define internal fastcc void @PrepareH55(ptr noalias noundef %0, i32 noundef range(i32 0, 2) %1, i64 noundef range(i64 0, 4294967296) %2, ptr noalias noundef readonly captures(none) %3) unnamed_addr #13 {
  %5 = getelementptr inbounds nuw i8, ptr %0, i64 224
  %6 = load i32, ptr %5, align 8, !tbaa !203
  %.not = icmp eq i32 %6, 0
  br i1 %.not, label %._crit_edge, label %7

._crit_edge:                                      ; preds = %4
  %.phi.trans.insert = getelementptr i8, ptr %0, i64 8
  %.val.pre = load ptr, ptr %.phi.trans.insert, align 8, !tbaa !187
  br label %29

7:                                                ; preds = %4
  store i32 0, ptr %5, align 8, !tbaa !203
  %8 = getelementptr inbounds nuw i8, ptr %0, i64 216
  %9 = load ptr, ptr %8, align 8, !tbaa !198
  %10 = load ptr, ptr %9, align 8, !tbaa !63
  %11 = getelementptr inbounds nuw i8, ptr %0, i64 56
  store ptr %10, ptr %11, align 8, !tbaa !63
  %12 = getelementptr inbounds nuw i8, ptr %9, i64 8
  %13 = load ptr, ptr %12, align 8, !tbaa !63
  %14 = getelementptr inbounds nuw i8, ptr %0, i64 64
  store ptr %13, ptr %14, align 8, !tbaa !63
  %15 = getelementptr inbounds nuw i8, ptr %0, i64 72
  %16 = getelementptr inbounds nuw i8, ptr %9, i64 16
  tail call void @llvm.memset.p0.i64(ptr noundef nonnull align 8 dereferenceable(16) %15, i8 0, i64 16, i1 false)
  %17 = load ptr, ptr %16, align 8, !tbaa !63
  %18 = getelementptr inbounds nuw i8, ptr %0, i64 136
  store ptr %17, ptr %18, align 8, !tbaa !63
  %19 = getelementptr inbounds nuw i8, ptr %9, i64 24
  %20 = load ptr, ptr %19, align 8, !tbaa !63
  %21 = getelementptr inbounds nuw i8, ptr %0, i64 144
  store ptr %20, ptr %21, align 8, !tbaa !63
  %22 = getelementptr inbounds nuw i8, ptr %0, i64 152
  tail call void @llvm.memset.p0.i64(ptr noundef nonnull align 8 dereferenceable(16) %22, i8 0, i64 16, i1 false)
  store ptr %11, ptr %0, align 8, !tbaa !185, !alias.scope !703
  %23 = getelementptr inbounds nuw i8, ptr %0, i64 8
  store ptr %10, ptr %23, align 8, !tbaa !187, !alias.scope !703
  %24 = getelementptr inbounds nuw i8, ptr %0, i64 16
  tail call void @llvm.experimental.noalias.scope.decl(metadata !706)
  store i32 0, ptr %24, align 8, !tbaa !493, !alias.scope !706
  %25 = getelementptr inbounds nuw i8, ptr %0, i64 32
  store i64 0, ptr %25, align 8, !tbaa !494, !alias.scope !706
  %26 = getelementptr inbounds nuw i8, ptr %0, i64 44
  store i32 69069, ptr %26, align 4, !tbaa !491, !alias.scope !706
  %27 = getelementptr inbounds nuw i8, ptr %0, i64 48
  store i32 381957665, ptr %27, align 8, !tbaa !693, !alias.scope !706
  %28 = getelementptr inbounds nuw i8, ptr %0, i64 24
  store ptr %17, ptr %28, align 8, !tbaa !694, !alias.scope !706
  tail call void @llvm.memset.p0.i64(ptr noundef nonnull align 4 dereferenceable(67108864) %17, i8 -1, i64 67108864, i1 false), !tbaa !59, !noalias !706
  br label %29

29:                                               ; preds = %._crit_edge, %7
  %.val = phi ptr [ %.val.pre, %._crit_edge ], [ %10, %7 ]
  tail call void @llvm.experimental.noalias.scope.decl(metadata !709)
  %.not.i = icmp ne i32 %1, 0
  %30 = icmp samesign ult i64 %2, 32769
  %or.cond.i = select i1 %.not.i, i1 %30, i1 false
  br i1 %or.cond.i, label %.preheader.i, label %44

.preheader.i:                                     ; preds = %29
  %.not3.i = icmp eq i64 %2, 0
  br i1 %.not3.i, label %PrepareHROLLING_FAST.exit, label %.lr.ph.i

.lr.ph.i:                                         ; preds = %.preheader.i, %42
  %.0142.i = phi i64 [ %43, %42 ], [ 0, %.preheader.i ]
  %31 = getelementptr inbounds nuw i8, ptr %3, i64 %.0142.i
  %.val.i = load i64, ptr %31, align 1, !alias.scope !709
  %32 = mul i64 %.val.i, -2064201331557805312
  %33 = lshr i64 %32, 44
  %34 = trunc nuw nsw i64 %33 to i32
  br label %35

35:                                               ; preds = %35, %.lr.ph.i
  %.01.i = phi i32 [ 0, %.lr.ph.i ], [ %41, %35 ]
  %36 = shl nuw nsw i32 %.01.i, 3
  %37 = add nuw nsw i32 %36, %34
  %38 = and i32 %37, 1048575
  %39 = zext nneg i32 %38 to i64
  %40 = getelementptr inbounds nuw i32, ptr %.val, i64 %39
  store i32 0, ptr %40, align 4, !tbaa !59, !noalias !709
  %41 = add nuw nsw i32 %.01.i, 1
  %exitcond.not.i = icmp eq i32 %41, 4
  br i1 %exitcond.not.i, label %42, label %35, !llvm.loop !680

42:                                               ; preds = %35
  %43 = add nuw nsw i64 %.0142.i, 1
  %exitcond4.not.i = icmp eq i64 %43, %2
  br i1 %exitcond4.not.i, label %PrepareH54.exit, label %.lr.ph.i, !llvm.loop !681

44:                                               ; preds = %29
  tail call void @llvm.memset.p0.i64(ptr noundef nonnull align 4 dereferenceable(4194304) %.val, i8 0, i64 4194304, i1 false), !noalias !709
  br label %PrepareH54.exit

PrepareH54.exit:                                  ; preds = %42, %44
  %45 = getelementptr inbounds nuw i8, ptr %0, i64 16
  tail call void @llvm.experimental.noalias.scope.decl(metadata !712)
  tail call void @llvm.experimental.noalias.scope.decl(metadata !715)
  %46 = icmp samesign ult i64 %2, 32
  br i1 %46, label %PrepareHROLLING_FAST.exit, label %47

47:                                               ; preds = %PrepareH54.exit
  %48 = getelementptr inbounds nuw i8, ptr %0, i64 44
  %49 = load i32, ptr %48, align 4, !tbaa !491, !alias.scope !712, !noalias !715
  br label %50

50:                                               ; preds = %50, %47
  %.08.i = phi i64 [ 0, %47 ], [ %58, %50 ]
  %51 = phi i32 [ 0, %47 ], [ %57, %50 ]
  %52 = getelementptr inbounds nuw i8, ptr %3, i64 %.08.i
  %53 = load i8, ptr %52, align 1, !tbaa !70, !alias.scope !715, !noalias !712
  %54 = mul i32 %51, %49
  %55 = zext i8 %53 to i32
  %56 = add i32 %54, 1
  %57 = add i32 %56, %55
  %58 = add nuw nsw i64 %.08.i, 4
  %59 = icmp samesign ult i64 %.08.i, 28
  br i1 %59, label %50, label %.loopexit.i, !llvm.loop !492

.loopexit.i:                                      ; preds = %50
  store i32 %57, ptr %45, align 8, !tbaa !493, !alias.scope !712, !noalias !715
  br label %PrepareHROLLING_FAST.exit

PrepareHROLLING_FAST.exit:                        ; preds = %.preheader.i, %PrepareH54.exit, %.loopexit.i
  ret void
}